; Function Attrs: nounwind uwtable
define internal noundef i32 @png_image_read_header(ptr nocapture noundef %0) #0 {
  %2 = load ptr, ptr %0, align 8
  %3 = load ptr, ptr %2, align 8
  %4 = getelementptr inbounds i8, ptr %2, i64 8
  %5 = load ptr, ptr %4, align 8
  tail call void @png_set_benign_errors(ptr noundef %3, i32 noundef 1) #11
  tail call void @png_read_info(ptr noundef %3, ptr noundef %5)
  %6 = getelementptr inbounds i8, ptr %3, i64 504
  %7 = load i32, ptr %6, align 8
  %8 = getelementptr inbounds i8, ptr %0, i64 12
  store i32 %7, ptr %8, align 4
  %9 = getelementptr inbounds i8, ptr %3, i64 508
  %10 = load i32, ptr %9, align 4
  %11 = getelementptr inbounds i8, ptr %0, i64 16
  store i32 %10, ptr %11, align 8
  %12 = getelementptr inbounds i8, ptr %3, i64 615
  %13 = load i8, ptr %12, align 1, !alias.scope !26
  %14 = and i8 %13, 2
  %spec.select.i = zext nneg i8 %14 to i32
  %15 = and i8 %13, 4
  %.not10.i = icmp eq i8 %15, 0
  br i1 %.not10.i, label %18, label %16

16:                                               ; preds = %1
  %17 = or disjoint i32 %spec.select.i, 1
  br label %png_image_format.exit

18:                                               ; preds = %1
  %19 = getelementptr inbounds i8, ptr %3, i64 608
  %20 = load i16, ptr %19, align 8, !alias.scope !26
  %.not11.i = icmp ne i16 %20, 0
  %21 = zext i1 %.not11.i to i32
  %spec.select13.i = or disjoint i32 %21, %spec.select.i
  br label %png_image_format.exit

png_image_format.exit:                            ; preds = %16, %18
  %.1.i = phi i32 [ %17, %16 ], [ %spec.select13.i, %18 ]
  %22 = getelementptr inbounds i8, ptr %3, i64 616
  %23 = load i8, ptr %22, align 8, !alias.scope !26
  %24 = icmp eq i8 %23, 16
  %25 = or i32 %.1.i, 4
  %spec.select14.i = select i1 %24, i32 %25, i32 %.1.i
  %26 = shl i8 %13, 3
  %27 = and i8 %26, 8
  %28 = zext nneg i8 %27 to i32
  %.3.i = or i32 %spec.select14.i, %28
  %29 = getelementptr inbounds i8, ptr %0, i64 20
  store i32 %.3.i, ptr %29, align 4
  %30 = and i32 %spec.select14.i, 2
  %.not = icmp eq i32 %30, 0
  br i1 %.not, label %40, label %31

31:                                               ; preds = %png_image_format.exit
  %32 = getelementptr inbounds i8, ptr %3, i64 1258
  %33 = load i16, ptr %32, align 2
  %34 = and i16 %33, -32702
  %35 = icmp eq i16 %34, 2
  br i1 %35, label %36, label %40

36:                                               ; preds = %31
  %37 = getelementptr inbounds i8, ptr %0, i64 24
  %38 = load i32, ptr %37, align 8
  %39 = or i32 %38, 1
  store i32 %39, ptr %37, align 8
  br label %40

40:                                               ; preds = %36, %31, %png_image_format.exit
  %41 = load i8, ptr %12, align 1
  switch i8 %41, label %50 [
    i8 0, label %42
    i8 3, label %46
  ]

42:                                               ; preds = %40
  %43 = load i8, ptr %22, align 8
  %44 = zext nneg i8 %43 to i32
  %45 = shl nuw i32 1, %44
  br label %50

46:                                               ; preds = %40
  %47 = getelementptr inbounds i8, ptr %3, i64 600
  %48 = load i16, ptr %47, align 8
  %49 = zext i16 %48 to i32
  br label %50

50:                                               ; preds = %40, %46, %42
  %.0 = phi i32 [ %49, %46 ], [ %45, %42 ], [ 256, %40 ]
  %spec.store.select = tail call i32 @llvm.umin.i32(i32 %.0, i32 256)
  %51 = getelementptr inbounds i8, ptr %0, i64 28
  store i32 %spec.store.select, ptr %51, align 4
  ret i32 1
}